; Function Attrs: mustprogress uwtable
define hidden void @_ZN2pb6solver7ba_sort9mk_clauseEjPKN3sat7literalE(ptr noundef nonnull align 8 dereferenceable(24) %this, i32 noundef %n, ptr nocapture noundef readonly %lits) local_unnamed_addr #3 align 2 {
entry:
  %agg.tmp = alloca %"class.sat::status", align 8
  %m_lits = getelementptr inbounds i8, ptr %this, i64 16
  %0 = load ptr, ptr %m_lits, align 8
  %tobool.not.i = icmp eq ptr %0, null
  br i1 %tobool.not.i, label %_ZN6vectorIN3sat7literalELb0EjE5resetEv.exit, label %if.then.i

if.then.i:                                        ; preds = %entry
  %arrayidx.i = getelementptr inbounds i8, ptr %0, i64 -4
  store i32 0, ptr %arrayidx.i, align 4
  br label %_ZN6vectorIN3sat7literalELb0EjE5resetEv.exit

_ZN6vectorIN3sat7literalELb0EjE5resetEv.exit:     ; preds = %entry, %if.then.i
  %cmp3.not.i = icmp eq i32 %n, 0
  br i1 %cmp3.not.i, label %_ZN6vectorIN3sat7literalELb0EjE6appendEjPKS1_.exit, label %for.body.preheader.i

for.body.preheader.i:                             ; preds = %_ZN6vectorIN3sat7literalELb0EjE5resetEv.exit
  %wide.trip.count.i = zext i32 %n to i64
  br label %for.body.i

for.body.i:                                       ; preds = %_ZN6vectorIN3sat7literalELb0EjE9push_backERKS1_.exit.i, %for.body.preheader.i
  %indvars.iv.i = phi i64 [ 0, %for.body.preheader.i ], [ %indvars.iv.next.i, %_ZN6vectorIN3sat7literalELb0EjE9push_backERKS1_.exit.i ]
  %arrayidx.i2 = getelementptr inbounds %"class.sat::literal", ptr %lits, i64 %indvars.iv.i
  %1 = load ptr, ptr %m_lits, align 8
  %cmp.i.i = icmp eq ptr %1, null
  br i1 %cmp.i.i, label %if.then.i.i, label %lor.lhs.false.i.i

lor.lhs.false.i.i:                                ; preds = %for.body.i
  %arrayidx.i.i = getelementptr inbounds i8, ptr %1, i64 -4
  %2 = load i32, ptr %arrayidx.i.i, align 4
  %arrayidx4.i.i = getelementptr inbounds i8, ptr %1, i64 -8
  %3 = load i32, ptr %arrayidx4.i.i, align 4
  %cmp5.i.i = icmp eq i32 %2, %3
  br i1 %cmp5.i.i, label %if.then.i.i, label %_ZN6vectorIN3sat7literalELb0EjE9push_backERKS1_.exit.i

if.then.i.i:                                      ; preds = %lor.lhs.false.i.i, %for.body.i
  tail call void @_ZN6vectorIN3sat7literalELb0EjE13expand_vectorEv(ptr noundef nonnull align 8 dereferenceable(8) %m_lits)
  %.pre.i.i = load ptr, ptr %m_lits, align 8
  %arrayidx8.phi.trans.insert.i.i = getelementptr inbounds i8, ptr %.pre.i.i, i64 -4
  %.pre1.i.i = load i32, ptr %arrayidx8.phi.trans.insert.i.i, align 4
  br label %_ZN6vectorIN3sat7literalELb0EjE9push_backERKS1_.exit.i

_ZN6vectorIN3sat7literalELb0EjE9push_backERKS1_.exit.i: ; preds = %if.then.i.i, %lor.lhs.false.i.i
  %4 = phi i32 [ %.pre1.i.i, %if.then.i.i ], [ %2, %lor.lhs.false.i.i ]
  %5 = phi ptr [ %.pre.i.i, %if.then.i.i ], [ %1, %lor.lhs.false.i.i ]
  %idx.ext.i.i = zext i32 %4 to i64
  %add.ptr.i.i = getelementptr inbounds %"class.sat::literal", ptr %5, i64 %idx.ext.i.i
  %6 = load i32, ptr %arrayidx.i2, align 4
  store i32 %6, ptr %add.ptr.i.i, align 4
  %7 = load ptr, ptr %m_lits, align 8
  %arrayidx10.i.i = getelementptr inbounds i8, ptr %7, i64 -4
  %8 = load i32, ptr %arrayidx10.i.i, align 4
  %inc.i.i = add i32 %8, 1
  store i32 %inc.i.i, ptr %arrayidx10.i.i, align 4
  %indvars.iv.next.i = add nuw nsw i64 %indvars.iv.i, 1
  %exitcond.not.i = icmp eq i64 %indvars.iv.next.i, %wide.trip.count.i
  br i1 %exitcond.not.i, label %_ZN6vectorIN3sat7literalELb0EjE6appendEjPKS1_.exit, label %for.body.i, !llvm.loop !143

_ZN6vectorIN3sat7literalELb0EjE6appendEjPKS1_.exit: ; preds = %_ZN6vectorIN3sat7literalELb0EjE9push_backERKS1_.exit.i, %_ZN6vectorIN3sat7literalELb0EjE5resetEv.exit
  %9 = load ptr, ptr %this, align 8
  %m_solver.i = getelementptr inbounds i8, ptr %9, i64 24
  %10 = load ptr, ptr %m_solver.i, align 8
  %11 = load ptr, ptr %m_lits, align 8
  store i32 1, ptr %agg.tmp, align 8, !alias.scope !144
  %m_orig.i.i = getelementptr inbounds i8, ptr %agg.tmp, i64 4
  store i32 -1, ptr %m_orig.i.i, align 4, !alias.scope !144
  %m_hint.i.i = getelementptr inbounds i8, ptr %agg.tmp, i64 8
  store ptr null, ptr %m_hint.i.i, align 8, !alias.scope !144
  %call5 = call noundef ptr @_ZN3sat6solver9mk_clauseEjPNS_7literalENS_6statusE(ptr noundef nonnull align 8 dereferenceable(4408) %10, i32 noundef %n, ptr noundef %11, ptr noundef nonnull %agg.tmp)
  ret void
}